target datalayout = "e-m:e-p270:32:32-p271:32:32-p272:64:64-i64:64-i128:128-f80:128-n8:16:32:64-S128"
target triple = "x86_64-unknown-linux-gnu"

%"class.pugi::xpath_node" = type { %"class.pugi::xml_node", %"class.pugi::xml_attribute" }
%"class.pugi::xml_node" = type { ptr }
%"class.pugi::xml_attribute" = type { ptr }

@_ZN4pugi8xml_nodeC1Ev = unnamed_addr alias void (ptr), ptr @_ZN4pugi8xml_nodeC2Ev

; Function Attrs: mustprogress nounwind uwtable
define noundef ptr @_ZNK4pugi13xml_attributecvPFvPPPS0_EEv(ptr noundef nonnull align 8 dereferenceable(8) %this) #0 align 2 {
entry:
  %this.addr = alloca ptr, align 8
  store ptr %this, ptr %this.addr, align 8
  %this1 = load ptr, ptr %this.addr, align 8
  %_attr = getelementptr inbounds %"class.pugi::xml_attribute", ptr %this1, i32 0, i32 0
  %0 = load ptr, ptr %_attr, align 8
  %tobool = icmp ne ptr %0, null
  %cond = select i1 %tobool, ptr @_ZN4pugiL30unspecified_bool_xml_attributeEPPPNS_13xml_attributeE, ptr null
  ret ptr %cond
}

; Function Attrs: mustprogress uwtable
define ptr @_ZNK4pugi10xpath_node4nodeEv(ptr noundef nonnull align 8 dereferenceable(16) %this) #2 align 2 {
entry:
  %retval = alloca %"class.pugi::xml_node", align 8
  %this.addr = alloca ptr, align 8
  store ptr %this, ptr %this.addr, align 8
  %this1 = load ptr, ptr %this.addr, align 8
  %_attribute = getelementptr inbounds %"class.pugi::xpath_node", ptr %this1, i32 0, i32 1
  %call = call noundef ptr @_ZNK4pugi13xml_attributecvPFvPPPS0_EEv(ptr noundef nonnull align 8 dereferenceable(8) %_attribute)
  %tobool = icmp ne ptr %call, null
  br i1 %tobool, label %cond.true, label %cond.false

cond.true:                                        ; preds = %entry
  call void @_ZN4pugi8xml_nodeC1Ev(ptr noundef nonnull align 8 dereferenceable(8) %retval)
  br label %cond.end

cond.false:                                       ; preds = %entry
  %_node = getelementptr inbounds %"class.pugi::xpath_node", ptr %this1, i32 0, i32 0
  call void @llvm.memcpy.p0.p0.i64(ptr align 8 %retval, ptr align 8 %_node, i64 8, i1 false)
  br label %cond.end

cond.end:                                         ; preds = %cond.false, %cond.true
  %coerce.dive = getelementptr inbounds %"class.pugi::xml_node", ptr %retval, i32 0, i32 0
  %0 = load ptr, ptr %coerce.dive, align 8
  ret ptr %0
}