; Function Attrs: mustprogress uwtable
define ptr @_ZNK4pugi10xpath_node4nodeEv(ptr nocapture noundef nonnull readonly align 8 dereferenceable(16) %this) local_unnamed_addr #6 align 2 {
entry:
  %retval = alloca %"class.pugi::xml_node", align 8
  %_attribute = getelementptr inbounds i8, ptr %this, i64 8
  %0 = load ptr, ptr %_attribute, align 8
  %tobool.not.i = icmp eq ptr %0, null
  br i1 %tobool.not.i, label %cond.false, label %cond.true

cond.true:                                        ; preds = %entry
  call void @_ZN4pugi8xml_nodeC1Ev(ptr noundef nonnull align 8 dereferenceable(8) %retval)
  %.pre = load ptr, ptr %retval, align 8
  br label %cond.end

cond.false:                                       ; preds = %entry
  %1 = load i64, ptr %this, align 8
  %2 = inttoptr i64 %1 to ptr
  br label %cond.end

cond.end:                                         ; preds = %cond.false, %cond.true
  %3 = phi ptr [ %2, %cond.false ], [ %.pre, %cond.true ]
  ret ptr %3
}